target datalayout = "e-m:e-p270:32:32-p271:32:32-p272:64:64-i64:64-i128:128-f80:128-n8:16:32:64-S128"
target triple = "x86_64-pc-linux-gnu"

%struct.rb_control_frame_struct = type { ptr, ptr, ptr, i64, ptr, ptr, ptr }
%struct.rb_execution_context_struct = type { ptr, i64, ptr, ptr, i32, i32, ptr, ptr, ptr, i64, i64, i64, ptr, i64, ptr, i64, i64, i8, i8, i64, %struct.anon.0 }
%struct.anon.0 = type { ptr, ptr, i64, [1 x %struct.__jmp_buf_tag] }
%struct.__jmp_buf_tag = type { [8 x i64], i32, %struct.__sigset_t }
%struct.__sigset_t = type { [16 x i64] }

@ruby_current_ec = hidden thread_local global ptr null, align 8
@.str.247 = private unnamed_addr constant [15 x i8] c"no block given\00", align 1

; Function Attrs: inlinehint nounwind sspstrong uwtable
define internal i64 @VM_ENV_FLAGS(ptr noundef %0, i64 noundef %1) #2 {
  %3 = alloca ptr, align 8
  %4 = alloca i64, align 8
  %5 = alloca i64, align 8
  store ptr %0, ptr %3, align 8, !tbaa !7
  store i64 %1, ptr %4, align 8, !tbaa !31
  call void @llvm.lifetime.start.p0(i64 8, ptr %5) #21
  %6 = load ptr, ptr %3, align 8, !tbaa !7
  %7 = getelementptr i64, ptr %6, i64 0
  %8 = load i64, ptr %7, align 8, !tbaa !31
  store i64 %8, ptr %5, align 8, !tbaa !31
  %9 = load i64, ptr %5, align 8, !tbaa !31
  %10 = load i64, ptr %4, align 8, !tbaa !31
  %11 = and i64 %9, %10
  call void @llvm.lifetime.end.p0(i64 8, ptr %5) #21
  ret i64 %11
}

; Function Attrs: inlinehint nounwind sspstrong uwtable
define internal ptr @VM_ENV_PREV_EP(ptr noundef %0) #2 {
  %2 = alloca ptr, align 8
  store ptr %0, ptr %2, align 8, !tbaa !7
  %3 = load ptr, ptr %2, align 8, !tbaa !7
  %4 = getelementptr i64, ptr %3, i64 -1
  %5 = load i64, ptr %4, align 8, !tbaa !31
  %6 = and i64 %5, -4
  %7 = inttoptr i64 %6 to ptr
  ret ptr %7
}

; Function Attrs: inlinehint nounwind sspstrong uwtable
define internal i32 @VM_ENV_LOCAL_P(ptr noundef %0) #2 {
  %2 = alloca ptr, align 8
  store ptr %0, ptr %2, align 8, !tbaa !7
  %3 = load ptr, ptr %2, align 8, !tbaa !7
  %4 = call i64 @VM_ENV_FLAGS(ptr noundef %3, i64 noundef 2)
  %5 = icmp ne i64 %4, 0
  %6 = select i1 %5, i32 1, i32 0
  ret i32 %6
}

; Function Attrs: inlinehint nounwind sspstrong willreturn memory(read) uwtable
define internal ptr @VM_EP_LEP(ptr noundef %0) #1 {
  %2 = alloca ptr, align 8
  store ptr %0, ptr %2, align 8, !tbaa !7
  br label %3

3:                                                ; preds = %8, %1
  %4 = load ptr, ptr %2, align 8, !tbaa !7
  %5 = call i32 @VM_ENV_LOCAL_P(ptr noundef %4)
  %6 = icmp ne i32 %5, 0
  %7 = xor i1 %6, true
  br i1 %7, label %8, label %11

8:                                                ; preds = %3
  %9 = load ptr, ptr %2, align 8, !tbaa !7
  %10 = call ptr @VM_ENV_PREV_EP(ptr noundef %9)
  store ptr %10, ptr %2, align 8, !tbaa !7
  br label %3, !llvm.loop !12

11:                                               ; preds = %3
  %12 = load ptr, ptr %2, align 8, !tbaa !7
  ret ptr %12
}

; Function Attrs: inlinehint nounwind sspstrong uwtable
define internal i64 @VM_ENV_BLOCK_HANDLER(ptr noundef %0) #2 {
  %2 = alloca ptr, align 8
  store ptr %0, ptr %2, align 8, !tbaa !7
  %3 = load ptr, ptr %2, align 8, !tbaa !7
  %4 = getelementptr i64, ptr %3, i64 -1
  %5 = load i64, ptr %4, align 8, !tbaa !31
  ret i64 %5
}

; Function Attrs: inlinehint nounwind sspstrong willreturn memory(read) uwtable
define internal ptr @VM_CF_LEP(ptr noundef %0) #1 {
  %2 = alloca ptr, align 8
  store ptr %0, ptr %2, align 8, !tbaa !14
  %3 = load ptr, ptr %2, align 8, !tbaa !14
  %4 = getelementptr inbounds nuw %struct.rb_control_frame_struct, ptr %3, i32 0, i32 4
  %5 = load ptr, ptr %4, align 8, !tbaa !16
  %6 = call ptr @VM_EP_LEP(ptr noundef %5) #35
  ret ptr %6
}

; Function Attrs: inlinehint nounwind sspstrong uwtable
define internal void @vm_block_handler_verify(i64 noundef %0) #2 {
  %2 = alloca i64, align 8
  store i64 %0, ptr %2, align 8, !tbaa !31
  ret void
}

; Function Attrs: inlinehint nounwind sspstrong willreturn memory(read) uwtable
define internal i64 @VM_CF_BLOCK_HANDLER(ptr noundef %0) #1 {
  %2 = alloca ptr, align 8
  %3 = alloca ptr, align 8
  store ptr %0, ptr %2, align 8, !tbaa !14
  call void @llvm.lifetime.start.p0(i64 8, ptr %3) #21
  %4 = load ptr, ptr %2, align 8, !tbaa !14
  %5 = call ptr @VM_CF_LEP(ptr noundef %4) #35
  store ptr %5, ptr %3, align 8, !tbaa !7
  %6 = load ptr, ptr %3, align 8, !tbaa !7
  %7 = call i64 @VM_ENV_BLOCK_HANDLER(ptr noundef %6)
  call void @llvm.lifetime.end.p0(i64 8, ptr %3) #21
  ret i64 %7
}

; Function Attrs: inlinehint nounwind sspstrong uwtable
define internal i64 @check_block_handler(ptr noundef %0) #2 {
  %2 = alloca ptr, align 8
  %3 = alloca i64, align 8
  store ptr %0, ptr %2, align 8, !tbaa !33
  call void @llvm.lifetime.start.p0(i64 8, ptr %3) #21
  %4 = load ptr, ptr %2, align 8, !tbaa !33
  %5 = getelementptr inbounds nuw %struct.rb_execution_context_struct, ptr %4, i32 0, i32 2
  %6 = load ptr, ptr %5, align 8, !tbaa !76
  %7 = call i64 @VM_CF_BLOCK_HANDLER(ptr noundef %6) #35
  store i64 %7, ptr %3, align 8, !tbaa !31
  %8 = load i64, ptr %3, align 8, !tbaa !31
  call void @vm_block_handler_verify(i64 noundef %8)
  %9 = load i64, ptr %3, align 8, !tbaa !31
  %10 = icmp eq i64 %9, 0
  %11 = xor i1 %10, true
  %12 = xor i1 %11, true
  %13 = zext i1 %12 to i32
  %14 = sext i32 %13 to i64
  %15 = call i64 @llvm.expect.i64(i64 %14, i64 0)
  %16 = icmp ne i64 %15, 0
  br i1 %16, label %17, label %18

17:                                               ; preds = %1
  call void @rb_vm_localjump_error(ptr noundef @.str.247, i64 noundef 4, i32 noundef 0) #38
  unreachable

18:                                               ; preds = %1
  %19 = load i64, ptr %3, align 8, !tbaa !31
  call void @llvm.lifetime.end.p0(i64 8, ptr %3) #21
  ret i64 %19
}

; Function Attrs: inlinehint nounwind sspstrong uwtable
define internal i64 @vm_yield_with_cref(ptr noundef %0, i32 noundef %1, ptr noundef %2, i32 noundef %3, ptr noundef %4, i32 noundef %5) #2 {
  %7 = alloca ptr, align 8
  %8 = alloca i32, align 4
  %9 = alloca ptr, align 8
  %10 = alloca i32, align 4
  %11 = alloca ptr, align 8
  %12 = alloca i32, align 4
  store ptr %0, ptr %7, align 8, !tbaa !33
  store i32 %1, ptr %8, align 4, !tbaa !24
  store ptr %2, ptr %9, align 8, !tbaa !7
  store i32 %3, ptr %10, align 4, !tbaa !24
  store ptr %4, ptr %11, align 8, !tbaa !20
  store i32 %5, ptr %12, align 4, !tbaa !24
  %13 = load ptr, ptr %7, align 8, !tbaa !33
  %14 = load ptr, ptr %7, align 8, !tbaa !33
  %15 = call i64 @check_block_handler(ptr noundef %14)
  %16 = load i32, ptr %8, align 4, !tbaa !24
  %17 = load ptr, ptr %9, align 8, !tbaa !7
  %18 = load i32, ptr %10, align 4, !tbaa !24
  %19 = load ptr, ptr %11, align 8, !tbaa !20
  %20 = load i32, ptr %12, align 4, !tbaa !24
  %21 = call i64 @invoke_block_from_c_bh(ptr noundef %13, i64 noundef %15, i32 noundef %16, ptr noundef %17, i32 noundef %18, i64 noundef 0, ptr noundef %19, i32 noundef %20, i32 noundef 0)
  ret i64 %21
}

; Function Attrs: inlinehint nounwind sspstrong uwtable
define internal i64 @vm_yield(ptr noundef %0, i32 noundef %1, ptr noundef %2, i32 noundef %3) #2 {
  %5 = alloca ptr, align 8
  %6 = alloca i32, align 4
  %7 = alloca ptr, align 8
  %8 = alloca i32, align 4
  store ptr %0, ptr %5, align 8, !tbaa !33
  store i32 %1, ptr %6, align 4, !tbaa !24
  store ptr %2, ptr %7, align 8, !tbaa !7
  store i32 %3, ptr %8, align 4, !tbaa !24
  %9 = load ptr, ptr %5, align 8, !tbaa !33
  %10 = load i32, ptr %6, align 4, !tbaa !24
  %11 = load ptr, ptr %7, align 8, !tbaa !7
  %12 = load i32, ptr %8, align 4, !tbaa !24
  %13 = call i64 @vm_yield_with_cref(ptr noundef %9, i32 noundef %10, ptr noundef %11, i32 noundef %12, ptr noundef null, i32 noundef 0)
  ret i64 %13
}

; Function Attrs: inlinehint nounwind sspstrong uwtable
define internal ptr @rb_current_execution_context(i1 noundef zeroext %0) #2 {
  %2 = alloca i8, align 1
  %3 = alloca ptr, align 8
  %4 = zext i1 %0 to i8
  store i8 %4, ptr %2, align 1, !tbaa !55
  call void @llvm.lifetime.start.p0(i64 8, ptr %3) #21
  %5 = call align 8 ptr @llvm.threadlocal.address.p0(ptr align 8 @ruby_current_ec)
  %6 = load ptr, ptr %5, align 8, !tbaa !33
  store ptr %6, ptr %3, align 8, !tbaa !33
  %7 = load ptr, ptr %3, align 8, !tbaa !33
  call void @llvm.lifetime.end.p0(i64 8, ptr %3) #21
  ret ptr %7
}

; Function Attrs: inlinehint nounwind sspstrong uwtable
define internal i64 @rb_yield_0(i32 noundef %0, ptr noundef %1) #2 {
  %3 = alloca i32, align 4
  %4 = alloca ptr, align 8
  store i32 %0, ptr %3, align 4, !tbaa !24
  store ptr %1, ptr %4, align 8, !tbaa !7
  %5 = call ptr @rb_current_execution_context(i1 noundef zeroext true)
  %6 = load i32, ptr %3, align 4, !tbaa !24
  %7 = load ptr, ptr %4, align 8, !tbaa !7
  %8 = call i64 @vm_yield(ptr noundef %5, i32 noundef %6, ptr noundef %7, i32 noundef 0)
  ret i64 %8
}

; Function Attrs: nounwind sspstrong uwtable
define internal i64 @catch_i(i64 noundef %0, i64 noundef %1, i32 noundef %2, ptr noundef %3, i64 noundef %4) #0 {
  %6 = alloca i64, align 8
  %7 = alloca i64, align 8
  %8 = alloca i32, align 4
  %9 = alloca ptr, align 8
  %10 = alloca i64, align 8
  store i64 %0, ptr %6, align 8, !tbaa !31
  store i64 %1, ptr %7, align 8, !tbaa !31
  store i32 %2, ptr %8, align 4, !tbaa !24
  store ptr %3, ptr %9, align 8, !tbaa !7
  store i64 %4, ptr %10, align 8, !tbaa !31
  %11 = call i64 @rb_yield_0(i32 noundef 1, ptr noundef %6)
  ret i64 %11
}