; Function Attrs: nounwind sspstrong uwtable
define internal i64 @catch_i(i64 noundef %0, i64 %1, i32 %2, ptr readnone captures(none) %3, i64 %4) #2 {
  %6 = alloca i64, align 8
  store i64 %0, ptr %6, align 8, !tbaa !7
  %7 = tail call align 8 ptr @llvm.threadlocal.address.p0(ptr align 8 @ruby_current_ec)
  %8 = load ptr, ptr %7, align 8, !tbaa !27
  %9 = getelementptr i8, ptr %8, i64 16
  %.val.i.i.i = load ptr, ptr %9, align 8, !tbaa !66
  %10 = getelementptr i8, ptr %.val.i.i.i, i64 32
  %.val.val.i.i.i = load ptr, ptr %10, align 8, !tbaa !13
  %.0.val4.i.i.i.i.i.i.i = load i64, ptr %.val.val.i.i.i, align 8, !tbaa !7
  %11 = and i64 %.0.val4.i.i.i.i.i.i.i, 2
  %.not5.i.i.i.i.i.i.i = icmp eq i64 %11, 0
  br i1 %.not5.i.i.i.i.i.i.i, label %.lr.ph.i.i.i.i.i.i.i, label %VM_CF_BLOCK_HANDLER.exit.i.i.i.i

.lr.ph.i.i.i.i.i.i.i:                             ; preds = %5, %.lr.ph.i.i.i.i.i.i.i
  %.06.i.i.i.i.i.i.i = phi ptr [ %14, %.lr.ph.i.i.i.i.i.i.i ], [ %.val.val.i.i.i, %5 ]
  %12 = getelementptr i8, ptr %.06.i.i.i.i.i.i.i, i64 -8
  %.0.val3.i.i.i.i.i.i.i = load i64, ptr %12, align 8, !tbaa !7
  %13 = and i64 %.0.val3.i.i.i.i.i.i.i, -4
  %14 = inttoptr i64 %13 to ptr
  %.0.val.i.i.i.i.i.i.i = load i64, ptr %14, align 8, !tbaa !7
  %15 = and i64 %.0.val.i.i.i.i.i.i.i, 2
  %.not.i.i.i.i.i.i.i = icmp eq i64 %15, 0
  br i1 %.not.i.i.i.i.i.i.i, label %.lr.ph.i.i.i.i.i.i.i, label %VM_CF_BLOCK_HANDLER.exit.i.i.i.i, !llvm.loop !11

VM_CF_BLOCK_HANDLER.exit.i.i.i.i:                 ; preds = %.lr.ph.i.i.i.i.i.i.i, %5
  %.0.lcssa.i.i.i.i.i.i.i = phi ptr [ %.val.val.i.i.i, %5 ], [ %14, %.lr.ph.i.i.i.i.i.i.i ]
  %16 = getelementptr i8, ptr %.0.lcssa.i.i.i.i.i.i.i, i64 -8
  %.val2.i.i.i.i.i = load i64, ptr %16, align 8, !tbaa !7
  %17 = icmp eq i64 %.val2.i.i.i.i.i, 0
  br i1 %17, label %18, label %rb_yield_0.exit, !prof !176

18:                                               ; preds = %VM_CF_BLOCK_HANDLER.exit.i.i.i.i
  tail call void @rb_vm_localjump_error(ptr noundef nonnull @.str.247, i64 noundef 4, i32 noundef 0) #56
  unreachable

rb_yield_0.exit:                                  ; preds = %VM_CF_BLOCK_HANDLER.exit.i.i.i.i
  %19 = call fastcc i64 @invoke_block_from_c_bh(ptr noundef %8, i64 noundef %.val2.i.i.i.i.i, i32 noundef 1, ptr noundef nonnull %6, i32 noundef 0, i64 noundef 0, ptr noundef null, i32 noundef 0, i32 noundef 0)
  ret i64 %19
}